target datalayout = "e-m:e-p270:32:32-p271:32:32-p272:64:64-i64:64-i128:128-f80:128-n8:16:32:64-S128"
target triple = "x86_64-pc-linux-gnu"

; Function Attrs: mustprogress nounwind uwtable
define dso_local noundef i64 @_ZN3igl7tinyply7PlyFile11PlyFileImpl20read_property_binaryERKmPvRmRSi(ptr noundef nonnull align 8 dereferenceable(200) %0, ptr noundef nonnull align 8 dereferenceable(8) %1, ptr noundef %2, ptr noundef nonnull align 8 dereferenceable(8) %3, ptr noundef nonnull align 8 dereferenceable(16) %4) #4 align 2 personality ptr @__gxx_personality_v0 {
  %6 = alloca ptr, align 8
  %7 = alloca ptr, align 8
  %8 = alloca ptr, align 8
  %9 = alloca ptr, align 8
  %10 = alloca ptr, align 8
  store ptr %0, ptr %6, align 8, !tbaa !86
  store ptr %1, ptr %7, align 8, !tbaa !48
  store ptr %2, ptr %8, align 8, !tbaa !29
  store ptr %3, ptr %9, align 8, !tbaa !48
  store ptr %4, ptr %10, align 8, !tbaa !58
  %11 = load ptr, ptr %7, align 8, !tbaa !48
  %12 = load i64, ptr %11, align 8, !tbaa !50
  %13 = load ptr, ptr %9, align 8, !tbaa !48
  %14 = load i64, ptr %13, align 8, !tbaa !50
  %15 = add i64 %14, %12
  store i64 %15, ptr %13, align 8, !tbaa !50
  %16 = load ptr, ptr %10, align 8, !tbaa !58
  %17 = load ptr, ptr %8, align 8, !tbaa !29
  %18 = load ptr, ptr %7, align 8, !tbaa !48
  %19 = load i64, ptr %18, align 8, !tbaa !50
  %20 = invoke noundef nonnull align 8 dereferenceable(16) ptr @_ZNSi4readEPcl(ptr noundef nonnull align 8 dereferenceable(16) %16, ptr noundef %17, i64 noundef %19)
          to label %21 unwind label %24

21:                                               ; preds = %5
  %22 = load ptr, ptr %7, align 8, !tbaa !48
  %23 = load i64, ptr %22, align 8, !tbaa !50
  ret i64 %23

24:                                               ; preds = %5
  %25 = landingpad { ptr, i32 }
          catch ptr null
  %26 = extractvalue { ptr, i32 } %25, 0
  call void @__clang_call_terminate(ptr %26) #23
  unreachable
}