; Function Attrs: mustprogress nounwind uwtable
define dso_local noundef i64 @_ZN3igl7tinyply7PlyFile11PlyFileImpl20read_property_binaryERKmPvRmRSi(ptr noundef nonnull readnone align 8 captures(none) dereferenceable(200) %0, ptr noundef nonnull readonly align 8 captures(none) dereferenceable(8) %1, ptr noundef %2, ptr noundef nonnull align 8 captures(none) dereferenceable(8) %3, ptr noundef nonnull align 8 dereferenceable(16) %4) local_unnamed_addr #2 align 2 personality ptr @__gxx_personality_v0 {
  %6 = load i64, ptr %1, align 8, !tbaa !27
  %7 = load i64, ptr %3, align 8, !tbaa !27
  %8 = add i64 %7, %6
  store i64 %8, ptr %3, align 8, !tbaa !27
  %9 = load i64, ptr %1, align 8, !tbaa !27
  %10 = invoke noundef nonnull align 8 dereferenceable(16) ptr @_ZNSi4readEPcl(ptr noundef nonnull align 8 dereferenceable(16) %4, ptr noundef %2, i64 noundef %9)
          to label %11 unwind label %13

11:                                               ; preds = %5
  %12 = load i64, ptr %1, align 8, !tbaa !27
  ret i64 %12

13:                                               ; preds = %5
  %14 = landingpad { ptr, i32 }
          catch ptr null
  %15 = extractvalue { ptr, i32 } %14, 0
  tail call void @__clang_call_terminate(ptr %15) #31
  unreachable
}